target datalayout = "e-m:e-p270:32:32-p271:32:32-p272:64:64-i64:64-i128:128-f80:128-n8:16:32:64-S128"
target triple = "x86_64-pc-linux-gnu"

@.str.11 = private unnamed_addr constant [12 x i8] c"plugin_name\00", align 1
@.str.29 = private unnamed_addr constant [33 x i8] c"%s: %s is not a Slurm plugin: %s\00", align 1
@.str.30 = private unnamed_addr constant [12 x i8] c"plugin_type\00", align 1
@.str.31 = private unnamed_addr constant [15 x i8] c"plugin_version\00", align 1
@.str.32 = private unnamed_addr constant [46 x i8] c"%s: plugin_version symbol not found in %s: %s\00", align 1
@.str.33 = private unnamed_addr constant [56 x i8] c"%s->%s: found Slurm plugin name:%s type:%s version:0x%x\00", align 1
@__func__._verify_syms = private unnamed_addr constant [13 x i8] c"_verify_syms\00", align 1
@.str.34 = private unnamed_addr constant [6 x i8] c"spank\00", align 1
@.str.35 = private unnamed_addr constant [54 x i8] c"%s: Incompatible Slurm plugin %s version (%d.%02d.%d)\00", align 1

; Function Attrs: nounwind uwtable
define internal i32 @_verify_syms(ptr noundef %0, ptr noundef %1, i64 noundef %2, ptr noundef %3, ptr noundef %4) #0 {
  %6 = alloca i32, align 4
  %7 = alloca ptr, align 8
  %8 = alloca ptr, align 8
  %9 = alloca i64, align 8
  %10 = alloca ptr, align 8
  %11 = alloca ptr, align 8
  %12 = alloca ptr, align 8
  %13 = alloca ptr, align 8
  %14 = alloca ptr, align 8
  %15 = alloca i32, align 4
  %16 = alloca i32, align 4
  %17 = alloca i32, align 4
  %18 = alloca i32, align 4
  %19 = alloca i32, align 4
  store ptr %0, ptr %7, align 8
  store ptr %1, ptr %8, align 8
  store i64 %2, ptr %9, align 8
  store ptr %3, ptr %10, align 8
  store ptr %4, ptr %11, align 8
  call void @llvm.lifetime.start.p0(i64 8, ptr %12) #7
  call void @llvm.lifetime.start.p0(i64 8, ptr %13) #7
  call void @llvm.lifetime.start.p0(i64 8, ptr %14) #7
  call void @llvm.lifetime.start.p0(i64 4, ptr %15) #7
  store i32 16777215, ptr %15, align 4
  %20 = load ptr, ptr %7, align 8
  %21 = call ptr @dlsym(ptr noundef %20, ptr noundef @.str.11) #7
  store ptr %21, ptr %13, align 8
  %22 = icmp ne ptr %21, null
  br i1 %22, label %37, label %23

23:                                               ; preds = %5
  br label %24

24:                                               ; preds = %23
  br label %25

25:                                               ; preds = %24
  %26 = call i32 @get_log_level()
  %27 = icmp sge i32 %26, 4
  br i1 %27, label %28, label %32

28:                                               ; preds = %25
  %29 = load ptr, ptr %10, align 8
  %30 = load ptr, ptr %11, align 8
  %31 = call ptr @dlerror() #7
  call void (i32, ptr, ...) @log_var(i32 noundef 4, ptr noundef @.str.29, ptr noundef %29, ptr noundef %30, ptr noundef %31)
  br label %32

32:                                               ; preds = %28, %25
  br label %33

33:                                               ; preds = %32
  br label %34

34:                                               ; preds = %33
  br label %35

35:                                               ; preds = %34
  br label %36

36:                                               ; preds = %35
  store i32 8009, ptr %6, align 4
  store i32 1, ptr %16, align 4
  br label %138

37:                                               ; preds = %5
  %38 = load ptr, ptr %7, align 8
  %39 = call ptr @dlsym(ptr noundef %38, ptr noundef @.str.30) #7
  store ptr %39, ptr %12, align 8
  %40 = icmp ne ptr %39, null
  br i1 %40, label %55, label %41

41:                                               ; preds = %37
  br label %42

42:                                               ; preds = %41
  br label %43

43:                                               ; preds = %42
  %44 = call i32 @get_log_level()
  %45 = icmp sge i32 %44, 4
  br i1 %45, label %46, label %50

46:                                               ; preds = %43
  %47 = load ptr, ptr %10, align 8
  %48 = load ptr, ptr %11, align 8
  %49 = call ptr @dlerror() #7
  call void (i32, ptr, ...) @log_var(i32 noundef 4, ptr noundef @.str.29, ptr noundef %47, ptr noundef %48, ptr noundef %49)
  br label %50

50:                                               ; preds = %46, %43
  br label %51

51:                                               ; preds = %50
  br label %52

52:                                               ; preds = %51
  br label %53

53:                                               ; preds = %52
  br label %54

54:                                               ; preds = %53
  store i32 8009, ptr %6, align 4
  store i32 1, ptr %16, align 4
  br label %138

55:                                               ; preds = %37
  %56 = load ptr, ptr %8, align 8
  %57 = icmp ne ptr %56, null
  br i1 %57, label %58, label %63

58:                                               ; preds = %55
  %59 = load ptr, ptr %8, align 8
  %60 = load ptr, ptr %12, align 8
  %61 = load i64, ptr %9, align 8
  %62 = call i64 @strlcpy(ptr noundef %59, ptr noundef %60, i64 noundef %61)
  br label %63

63:                                               ; preds = %58, %55
  %64 = load ptr, ptr %7, align 8
  %65 = call ptr @dlsym(ptr noundef %64, ptr noundef @.str.31) #7
  store ptr %65, ptr %14, align 8
  %66 = load ptr, ptr %14, align 8
  %67 = icmp ne ptr %66, null
  br i1 %67, label %82, label %68

68:                                               ; preds = %63
  br label %69

69:                                               ; preds = %68
  br label %70

70:                                               ; preds = %69
  %71 = call i32 @get_log_level()
  %72 = icmp sge i32 %71, 4
  br i1 %72, label %73, label %77

73:                                               ; preds = %70
  %74 = load ptr, ptr %10, align 8
  %75 = load ptr, ptr %11, align 8
  %76 = call ptr @dlerror() #7
  call void (i32, ptr, ...) @log_var(i32 noundef 4, ptr noundef @.str.32, ptr noundef %74, ptr noundef %75, ptr noundef %76)
  br label %77

77:                                               ; preds = %73, %70
  br label %78

78:                                               ; preds = %77
  br label %79

79:                                               ; preds = %78
  br label %80

80:                                               ; preds = %79
  br label %81

81:                                               ; preds = %80
  store i32 8009, ptr %6, align 4
  store i32 1, ptr %16, align 4
  br label %138

82:                                               ; preds = %63
  br label %83

83:                                               ; preds = %82
  br label %84

84:                                               ; preds = %83
  %85 = call i32 @get_log_level()
  %86 = icmp sge i32 %85, 7
  br i1 %86, label %87, label %93

87:                                               ; preds = %84
  %88 = load ptr, ptr %10, align 8
  %89 = load ptr, ptr %13, align 8
  %90 = load ptr, ptr %12, align 8
  %91 = load ptr, ptr %14, align 8
  %92 = load i32, ptr %91, align 4
  call void (i32, ptr, ...) @log_var(i32 noundef 7, ptr noundef @.str.33, ptr noundef %88, ptr noundef @__func__._verify_syms, ptr noundef %89, ptr noundef %90, i32 noundef %92)
  br label %93

93:                                               ; preds = %87, %84
  br label %94

94:                                               ; preds = %93
  br label %95

95:                                               ; preds = %94
  br label %96

96:                                               ; preds = %95
  br label %97

97:                                               ; preds = %96
  %98 = load ptr, ptr %12, align 8
  %99 = call i32 @xstrcmp(ptr noundef %98, ptr noundef @.str.34)
  %100 = icmp ne i32 %99, 0
  br i1 %100, label %102, label %101

101:                                              ; preds = %97
  store i32 16776960, ptr %15, align 4
  br label %102

102:                                              ; preds = %101, %97
  %103 = load ptr, ptr %14, align 8
  %104 = load i32, ptr %103, align 4
  %105 = load i32, ptr %15, align 4
  %106 = and i32 %104, %105
  %107 = load i32, ptr %15, align 4
  %108 = and i32 1639680, %107
  %109 = icmp ne i32 %106, %108
  br i1 %109, label %110, label %137

110:                                              ; preds = %102
  call void @llvm.lifetime.start.p0(i64 4, ptr %17) #7
  call void @llvm.lifetime.start.p0(i64 4, ptr %18) #7
  call void @llvm.lifetime.start.p0(i64 4, ptr %19) #7
  %111 = load ptr, ptr %14, align 8
  %112 = load i32, ptr %111, align 4
  %113 = lshr i32 %112, 16
  %114 = and i32 %113, 255
  store i32 %114, ptr %17, align 4
  %115 = load ptr, ptr %14, align 8
  %116 = load i32, ptr %115, align 4
  %117 = lshr i32 %116, 8
  %118 = and i32 %117, 255
  store i32 %118, ptr %18, align 4
  %119 = load ptr, ptr %14, align 8
  %120 = load i32, ptr %119, align 4
  %121 = and i32 %120, 255
  store i32 %121, ptr %19, align 4
  br label %122

122:                                              ; preds = %110
  br label %123

123:                                              ; preds = %122
  %124 = call i32 @get_log_level()
  %125 = icmp sge i32 %124, 3
  br i1 %125, label %126, label %132

126:                                              ; preds = %123
  %127 = load ptr, ptr %10, align 8
  %128 = load ptr, ptr %11, align 8
  %129 = load i32, ptr %17, align 4
  %130 = load i32, ptr %18, align 4
  %131 = load i32, ptr %19, align 4
  call void (i32, ptr, ...) @log_var(i32 noundef 3, ptr noundef @.str.35, ptr noundef %127, ptr noundef %128, i32 noundef %129, i32 noundef %130, i32 noundef %131)
  br label %132

132:                                              ; preds = %126, %123
  br label %133

133:                                              ; preds = %132
  br label %134

134:                                              ; preds = %133
  br label %135

135:                                              ; preds = %134
  br label %136

136:                                              ; preds = %135
  store i32 8010, ptr %6, align 4
  store i32 1, ptr %16, align 4
  call void @llvm.lifetime.end.p0(i64 4, ptr %19) #7
  call void @llvm.lifetime.end.p0(i64 4, ptr %18) #7
  call void @llvm.lifetime.end.p0(i64 4, ptr %17) #7
  br label %138

137:                                              ; preds = %102
  store i32 0, ptr %6, align 4
  store i32 1, ptr %16, align 4
  br label %138

138:                                              ; preds = %137, %136, %81, %54, %36
  call void @llvm.lifetime.end.p0(i64 4, ptr %15) #7
  call void @llvm.lifetime.end.p0(i64 8, ptr %14) #7
  call void @llvm.lifetime.end.p0(i64 8, ptr %13) #7
  call void @llvm.lifetime.end.p0(i64 8, ptr %12) #7
  %139 = load i32, ptr %6, align 4
  ret i32 %139
}