; Function Attrs: nounwind uwtable
define internal fastcc range(i32 0, 8011) i32 @_verify_syms(ptr noundef nonnull %0, ptr noundef %1, i64 noundef %2, ptr noundef %3, ptr noundef %4) unnamed_addr #0 {
  %6 = tail call ptr @dlsym(ptr noundef nonnull %0, ptr noundef nonnull @.str.11) #10
  %.not = icmp eq ptr %6, null
  br i1 %.not, label %7, label %12

7:                                                ; preds = %5
  %8 = tail call i32 @get_log_level() #10
  %9 = icmp sgt i32 %8, 3
  br i1 %9, label %10, label %46

10:                                               ; preds = %7
  %11 = tail call ptr @dlerror() #10
  tail call void (i32, ptr, ...) @log_var(i32 noundef 4, ptr noundef nonnull @.str.29, ptr noundef %3, ptr noundef %4, ptr noundef %11) #10
  br label %46

12:                                               ; preds = %5
  %13 = tail call ptr @dlsym(ptr noundef nonnull %0, ptr noundef nonnull @.str.30) #10
  %.not35 = icmp eq ptr %13, null
  br i1 %.not35, label %14, label %19

14:                                               ; preds = %12
  %15 = tail call i32 @get_log_level() #10
  %16 = icmp sgt i32 %15, 3
  br i1 %16, label %17, label %46

17:                                               ; preds = %14
  %18 = tail call ptr @dlerror() #10
  tail call void (i32, ptr, ...) @log_var(i32 noundef 4, ptr noundef nonnull @.str.29, ptr noundef %3, ptr noundef %4, ptr noundef %18) #10
  br label %46

19:                                               ; preds = %12
  %.not36 = icmp eq ptr %1, null
  br i1 %.not36, label %22, label %20

20:                                               ; preds = %19
  %21 = tail call i64 @strlcpy(ptr noundef nonnull %1, ptr noundef nonnull dereferenceable(1) %13, i64 noundef %2) #10
  br label %22

22:                                               ; preds = %20, %19
  %23 = tail call ptr @dlsym(ptr noundef nonnull %0, ptr noundef nonnull @.str.31) #10
  %.not37 = icmp eq ptr %23, null
  %24 = tail call i32 @get_log_level() #10
  br i1 %.not37, label %25, label %29

25:                                               ; preds = %22
  %26 = icmp sgt i32 %24, 3
  br i1 %26, label %27, label %46

27:                                               ; preds = %25
  %28 = tail call ptr @dlerror() #10
  tail call void (i32, ptr, ...) @log_var(i32 noundef 4, ptr noundef nonnull @.str.32, ptr noundef %3, ptr noundef %4, ptr noundef %28) #10
  br label %46

29:                                               ; preds = %22
  %30 = icmp sgt i32 %24, 6
  br i1 %30, label %31, label %33

31:                                               ; preds = %29
  %32 = load i32, ptr %23, align 4
  tail call void (i32, ptr, ...) @log_var(i32 noundef 7, ptr noundef nonnull @.str.33, ptr noundef %3, ptr noundef nonnull @__func__._verify_syms, ptr noundef nonnull %6, ptr noundef nonnull %13, i32 noundef %32) #10
  br label %33

33:                                               ; preds = %31, %29
  %34 = tail call i32 @xstrcmp(ptr noundef nonnull %13, ptr noundef nonnull @.str.34) #10
  %.not38 = icmp eq i32 %34, 0
  %spec.select = select i1 %.not38, i32 16776960, i32 16777215
  %35 = load i32, ptr %23, align 4
  %36 = and i32 %spec.select, %35
  %.not39 = icmp eq i32 %36, 1639680
  br i1 %.not39, label %46, label %37

37:                                               ; preds = %33
  %38 = tail call i32 @get_log_level() #10
  %39 = icmp sgt i32 %38, 2
  br i1 %39, label %40, label %46

40:                                               ; preds = %37
  %41 = and i32 %35, 255
  %42 = lshr i32 %35, 8
  %43 = and i32 %42, 255
  %44 = lshr i32 %35, 16
  %45 = and i32 %44, 255
  tail call void (i32, ptr, ...) @log_var(i32 noundef 3, ptr noundef nonnull @.str.35, ptr noundef %3, ptr noundef %4, i32 noundef %45, i32 noundef %43, i32 noundef %41) #10
  br label %46

46:                                               ; preds = %33, %37, %40, %25, %27, %14, %17, %7, %10
  %.0 = phi i32 [ 8009, %10 ], [ 8009, %7 ], [ 8009, %17 ], [ 8009, %14 ], [ 8009, %27 ], [ 8009, %25 ], [ 8010, %40 ], [ 8010, %37 ], [ 0, %33 ]
  ret i32 %.0
}